target datalayout = "e-m:e-p270:32:32-p271:32:32-p272:64:64-i64:64-i128:128-f80:128-n8:16:32:64-S128"
target triple = "x86_64-pc-linux-gnu"

%struct._zend_executor_globals = type { %struct._zval_struct, %struct._zval_struct, [32 x ptr], ptr, ptr, %struct._zend_array, %struct._zend_array, ptr, i32, i32, ptr, ptr, ptr, ptr, ptr, ptr, i64, ptr, ptr, i32, i32, i64, i32, i32, i32, i8, i8, %struct.zend_atomic_bool_s, %struct.zend_atomic_bool_s, ptr, i64, ptr, ptr, %struct._zend_array, %struct._zend_array, i32, i8, %struct._zval_struct, %struct._zval_struct, %struct._zend_stack, %struct._zend_stack, %struct._zend_stack, ptr, i32, i32, i64, ptr, ptr, ptr, %struct._zend_objects_store, ptr, ptr, ptr, [3 x %struct._zend_op], ptr, i8, i8, i64, i32, i32, ptr, [16 x %struct._HashTableIterator], ptr, %union._zend_function, %struct._zend_op, %struct._zend_array, i64, %struct.zend_get_gc_buffer, ptr, ptr, ptr, i64, i8, i32, ptr, ptr, i64, %struct._zend_call_stack, i64, i64, [6 x ptr] }
%struct.zend_atomic_bool_s = type { i8 }
%struct._zval_struct = type { %union._zend_value, %union.anon.2, %union.anon.5 }
%union._zend_value = type { i64 }
%union.anon.2 = type { i32 }
%union.anon.5 = type { i32 }
%struct._zend_stack = type { i32, i32, i32, ptr }
%struct._zend_objects_store = type { ptr, i32, i32, i32 }
%struct._HashTableIterator = type { ptr, i32, i32 }
%union._zend_function = type { %struct._zend_op_array }
%struct._zend_op_array = type { i8, [3 x i8], i32, ptr, ptr, ptr, i32, i32, ptr, ptr, ptr, ptr, i32, i32, i32, i32, ptr, ptr, ptr, ptr, ptr, i32, i32, ptr, ptr, ptr, i32, i32, i32, i32, ptr, ptr, [6 x ptr] }
%struct._zend_op = type { ptr, %union._znode_op, %union._znode_op, %union._znode_op, i32, i32, i8, i8, i8, i8 }
%union._znode_op = type { i32 }
%struct._zend_array = type { %struct._zend_refcounted_h, %union.anon.7, i32, %union.anon.9, i32, i32, i32, i32, i64, ptr }
%struct._zend_refcounted_h = type { i32, %union.anon.6 }
%union.anon.6 = type { i32 }
%union.anon.7 = type { i32 }
%union.anon.9 = type { ptr }
%struct.zend_get_gc_buffer = type { ptr, ptr, ptr }
%struct._zend_call_stack = type { ptr, i64 }
%struct._spl_filesystem_object = type { ptr, ptr, ptr, ptr, ptr, i32, i64, ptr, ptr, %union.anon, %struct._zend_object }
%union.anon = type { %struct.anon }
%struct.anon = type { ptr, ptr, i32, ptr, ptr, ptr, %struct._php_stream_dirent }
%struct._php_stream_dirent = type { [256 x i8], i8 }
%struct._zend_object = type { %struct._zend_refcounted_h, i32, ptr, ptr, ptr, [1 x %struct._zval_struct] }
%struct._zend_string = type { %struct._zend_refcounted_h, i64, i64, [1 x i8] }
%struct._zend_execute_data = type { ptr, ptr, ptr, ptr, %struct._zval_struct, ptr, ptr, ptr, ptr }
%struct.anon.0 = type { ptr, ptr, ptr, ptr, %struct._zval_struct, ptr, i64, i64, i64, %struct._zval_struct, ptr, i8, i8, i32 }

@executor_globals = external global %struct._zend_executor_globals, align 8
@.str = private unnamed_addr constant [23 x i8] c"Object not initialized\00", align 1
@.str.1 = private unnamed_addr constant [2 x i8] c"l\00", align 1
@.str.31 = private unnamed_addr constant [23 x i8] c"must be greater than 0\00", align 1

; Function Attrs: nounwind uwtable
define internal ptr @spl_filesystem_from_obj(ptr noundef %0) #0 {
  %2 = alloca ptr, align 8
  store ptr %0, ptr %2, align 8
  %3 = load ptr, ptr %2, align 8
  %4 = getelementptr inbounds i8, ptr %3, i64 -384
  ret ptr %4
}

; Function Attrs: nounwind uwtable
define hidden void @zim_SplFileObject_fread(ptr noundef %0, ptr noundef %1) #0 {
  %3 = alloca i32, align 4
  %4 = alloca ptr, align 8
  %5 = alloca ptr, align 8
  %6 = alloca ptr, align 8
  %7 = alloca i64, align 8
  %8 = alloca ptr, align 8
  %9 = alloca ptr, align 8
  %10 = alloca ptr, align 8
  store ptr %0, ptr %4, align 8
  store ptr %1, ptr %5, align 8
  %11 = load ptr, ptr %4, align 8
  %12 = getelementptr inbounds %struct._zend_execute_data, ptr %11, i32 0, i32 4
  %13 = getelementptr inbounds %struct._zval_struct, ptr %12, i32 0, i32 0
  %14 = load ptr, ptr %13, align 8
  %15 = call ptr @spl_filesystem_from_obj(ptr noundef %14)
  store ptr %15, ptr %6, align 8
  store i64 0, ptr %7, align 8
  %16 = load ptr, ptr %4, align 8
  %17 = getelementptr inbounds %struct._zend_execute_data, ptr %16, i32 0, i32 4
  %18 = getelementptr inbounds %struct._zval_struct, ptr %17, i32 0, i32 2
  %19 = load i32, ptr %18, align 4
  %20 = call i32 (i32, ptr, ...) @zend_parse_parameters(i32 noundef %19, ptr noundef @.str.1, ptr noundef %7)
  %21 = icmp eq i32 %20, -1
  br i1 %21, label %22, label %27

22:                                               ; preds = %2
  br label %23

23:                                               ; preds = %22
  %24 = load ptr, ptr getelementptr inbounds (%struct._zend_executor_globals, ptr @executor_globals, i32 0, i32 50), align 8
  %25 = icmp ne ptr %24, null
  call void @llvm.assume(i1 %25)
  br label %82

26:                                               ; No predecessors!
  br label %27

27:                                               ; preds = %26, %2
  %28 = load ptr, ptr %6, align 8
  %29 = getelementptr inbounds %struct._spl_filesystem_object, ptr %28, i32 0, i32 9
  %30 = getelementptr inbounds %struct.anon.0, ptr %29, i32 0, i32 0
  %31 = load ptr, ptr %30, align 8
  %32 = icmp ne ptr %31, null
  br i1 %32, label %38, label %33

33:                                               ; preds = %27
  call void (ptr, ptr, ...) @zend_throw_error(ptr noundef null, ptr noundef @.str)
  br label %34

34:                                               ; preds = %33
  %35 = load ptr, ptr getelementptr inbounds (%struct._zend_executor_globals, ptr @executor_globals, i32 0, i32 50), align 8
  %36 = icmp ne ptr %35, null
  call void @llvm.assume(i1 %36)
  br label %82

37:                                               ; No predecessors!
  br label %38

38:                                               ; preds = %37, %27
  %39 = load i64, ptr %7, align 8
  %40 = icmp sle i64 %39, 0
  br i1 %40, label %41, label %46

41:                                               ; preds = %38
  call void (i32, ptr, ...) @zend_argument_value_error(i32 noundef 1, ptr noundef @.str.31)
  br label %42

42:                                               ; preds = %41
  %43 = load ptr, ptr getelementptr inbounds (%struct._zend_executor_globals, ptr @executor_globals, i32 0, i32 50), align 8
  %44 = icmp ne ptr %43, null
  call void @llvm.assume(i1 %44)
  br label %82

45:                                               ; No predecessors!
  br label %46

46:                                               ; preds = %45, %38
  %47 = load ptr, ptr %6, align 8
  %48 = getelementptr inbounds %struct._spl_filesystem_object, ptr %47, i32 0, i32 9
  %49 = getelementptr inbounds %struct.anon.0, ptr %48, i32 0, i32 0
  %50 = load ptr, ptr %49, align 8
  %51 = load i64, ptr %7, align 8
  %52 = call ptr @php_stream_read_to_str(ptr noundef %50, i64 noundef %51)
  store ptr %52, ptr %8, align 8
  %53 = load ptr, ptr %8, align 8
  %54 = icmp ne ptr %53, null
  br i1 %54, label %62, label %55

55:                                               ; preds = %46
  br label %56

56:                                               ; preds = %55
  br label %57

57:                                               ; preds = %56
  %58 = load ptr, ptr %5, align 8
  %59 = getelementptr inbounds %struct._zval_struct, ptr %58, i32 0, i32 1
  store i32 2, ptr %59, align 8
  br label %60

60:                                               ; preds = %57
  br label %82

61:                                               ; No predecessors!
  br label %62

62:                                               ; preds = %61, %46
  br label %63

63:                                               ; preds = %62
  br label %64

64:                                               ; preds = %63
  %65 = load ptr, ptr %5, align 8
  store ptr %65, ptr %9, align 8
  %66 = load ptr, ptr %8, align 8
  store ptr %66, ptr %10, align 8
  %67 = load ptr, ptr %10, align 8
  %68 = load ptr, ptr %9, align 8
  %69 = getelementptr inbounds %struct._zval_struct, ptr %68, i32 0, i32 0
  store ptr %67, ptr %69, align 8
  %70 = load ptr, ptr %10, align 8
  %71 = getelementptr inbounds %struct._zend_string, ptr %70, i32 0, i32 0
  %72 = getelementptr inbounds %struct._zend_refcounted_h, ptr %71, i32 0, i32 1
  %73 = load i32, ptr %72, align 4
  store i32 %73, ptr %3, align 4
  %74 = load i32, ptr %3, align 4
  %75 = and i32 %74, 1008
  %76 = and i32 %75, 64
  %77 = icmp ne i32 %76, 0
  %78 = select i1 %77, i32 6, i32 262
  %79 = load ptr, ptr %9, align 8
  %80 = getelementptr inbounds %struct._zval_struct, ptr %79, i32 0, i32 1
  store i32 %78, ptr %80, align 8
  br label %81

81:                                               ; preds = %64
  br label %82

82:                                               ; preds = %81, %60, %42, %34, %23
  ret void
}