; Function Attrs: nounwind uwtable
define hidden void @zim_SplFileObject_fread(ptr nocapture noundef readonly %0, ptr nocapture noundef writeonly %1) #0 {
  %3 = alloca i64, align 8
  %4 = getelementptr inbounds i8, ptr %0, i64 32
  %5 = load ptr, ptr %4, align 8
  store i64 0, ptr %3, align 8
  %6 = getelementptr inbounds i8, ptr %0, i64 44
  %7 = load i32, ptr %6, align 4
  %8 = call i32 (i32, ptr, ...) @zend_parse_parameters(i32 noundef %7, ptr noundef nonnull @.str.1, ptr noundef nonnull %3) #18
  %9 = icmp eq i32 %8, -1
  br i1 %9, label %10, label %13

10:                                               ; preds = %2
  %11 = load ptr, ptr getelementptr inbounds (%struct._zend_executor_globals, ptr @executor_globals, i64 0, i32 50), align 8
  %12 = icmp ne ptr %11, null
  call void @llvm.assume(i1 %12)
  br label %35

13:                                               ; preds = %2
  %14 = getelementptr inbounds i8, ptr %5, i64 -312
  %15 = load ptr, ptr %14, align 8
  %.not = icmp eq ptr %15, null
  br i1 %.not, label %16, label %19

16:                                               ; preds = %13
  call void (ptr, ptr, ...) @zend_throw_error(ptr noundef null, ptr noundef nonnull @.str) #18
  %17 = load ptr, ptr getelementptr inbounds (%struct._zend_executor_globals, ptr @executor_globals, i64 0, i32 50), align 8
  %18 = icmp ne ptr %17, null
  call void @llvm.assume(i1 %18)
  br label %35

19:                                               ; preds = %13
  %20 = load i64, ptr %3, align 8
  %21 = icmp slt i64 %20, 1
  br i1 %21, label %22, label %25

22:                                               ; preds = %19
  call void (i32, ptr, ...) @zend_argument_value_error(i32 noundef 1, ptr noundef nonnull @.str.31) #18
  %23 = load ptr, ptr getelementptr inbounds (%struct._zend_executor_globals, ptr @executor_globals, i64 0, i32 50), align 8
  %24 = icmp ne ptr %23, null
  call void @llvm.assume(i1 %24)
  br label %35

25:                                               ; preds = %19
  %26 = call ptr @php_stream_read_to_str(ptr noundef nonnull %15, i64 noundef %20) #18
  %.not14 = icmp eq ptr %26, null
  br i1 %.not14, label %27, label %29

27:                                               ; preds = %25
  %28 = getelementptr inbounds i8, ptr %1, i64 8
  store i32 2, ptr %28, align 8
  br label %35

29:                                               ; preds = %25
  store ptr %26, ptr %1, align 8
  %30 = getelementptr inbounds i8, ptr %26, i64 4
  %31 = load i32, ptr %30, align 4
  %32 = and i32 %31, 64
  %.not15 = icmp eq i32 %32, 0
  %33 = select i1 %.not15, i32 262, i32 6
  %34 = getelementptr inbounds i8, ptr %1, i64 8
  store i32 %33, ptr %34, align 8
  br label %35

35:                                               ; preds = %29, %27, %22, %16, %10
  ret void
}